; Function Attrs: mustprogress nounwind uwtable
define dso_local void @_ZNK4llvm17RISCVRegisterInfo17resolveFrameIndexERNS_12MachineInstrENS_8RegisterEl(ptr noundef nonnull align 8 dereferenceable(308) %0, ptr noundef nonnull align 8 dereferenceable(70) %1, i32 %2, i64 noundef %3) unnamed_addr #2 align 2 {
  %5 = getelementptr inbounds nuw i8, ptr %1, i64 32
  %6 = load ptr, ptr %5, align 8
  br label %7

7:                                                ; preds = %7, %4
  %.0 = phi i32 [ 0, %4 ], [ %13, %7 ]
  %8 = zext i32 %.0 to i64
  %9 = getelementptr inbounds %"class.llvm::MachineOperand", ptr %6, i64 %8
  %10 = load i32, ptr %9, align 8
  %11 = and i32 %10, 255
  %12 = icmp eq i32 %11, 5
  %13 = add i32 %.0, 1
  br i1 %12, label %14, label %7, !llvm.loop !101

14:                                               ; preds = %7
  %15 = load ptr, ptr %0, align 8
  %16 = getelementptr inbounds i8, ptr %15, i64 488
  %17 = load ptr, ptr %16, align 8
  %18 = tail call noundef i64 %17(ptr noundef nonnull align 8 dereferenceable(308) %0, ptr noundef nonnull %1, i32 noundef %.0) #21
  %19 = add nsw i64 %18, %3
  %20 = load ptr, ptr %5, align 8
  %21 = getelementptr inbounds %"class.llvm::MachineOperand", ptr %20, i64 %8
  tail call void @_ZN4llvm14MachineOperand16ChangeToRegisterENS_8RegisterEbbbbbb(ptr noundef nonnull align 8 dereferenceable(32) %21, i32 %2, i1 noundef zeroext false, i1 noundef zeroext false, i1 noundef zeroext false, i1 noundef zeroext false, i1 noundef zeroext false, i1 noundef zeroext false) #21
  %22 = load ptr, ptr %5, align 8
  %23 = zext i32 %13 to i64
  %24 = getelementptr inbounds %"class.llvm::MachineOperand", ptr %22, i64 %23
  tail call void @_ZN4llvm14MachineOperand17ChangeToImmediateElj(ptr noundef nonnull align 8 dereferenceable(32) %24, i64 noundef %19, i32 noundef 0) #21
  ret void
}